target datalayout = "e-m:e-p270:32:32-p271:32:32-p272:64:64-i64:64-i128:128-f80:128-n8:16:32:64-S128"
target triple = "x86_64-pc-linux-gnu"

@.str = private unnamed_addr constant [7 x i8] c"  %10g\00", align 1
@.str.1 = private unnamed_addr constant [2 x i8] c"\0A\00", align 1

; Function Attrs: inlinehint mustprogress nounwind uwtable
define linkonce_odr noundef float @_ZSt4sqrtf(float noundef %0) #3 comdat {
  %2 = alloca float, align 4
  store float %0, ptr %2, align 4, !tbaa !11
  %3 = load float, ptr %2, align 4, !tbaa !11
  %4 = call float @sqrtf(float noundef %3) #14, !tbaa !4
  ret float %4
}

; Function Attrs: mustprogress nounwind uwtable
define linkonce_odr noundef float @_ZN3gmx6squareIfEET_S1_(float noundef %0) #2 comdat {
  %2 = alloca float, align 4
  store float %0, ptr %2, align 4, !tbaa !11
  %3 = load float, ptr %2, align 4, !tbaa !11
  %4 = load float, ptr %2, align 4, !tbaa !11
  %5 = fmul float %3, %4
  ret float %5
}

; Function Attrs: mustprogress nounwind uwtable
define noundef float @_Z6radiusP8_IO_FILEiPKiPA3_f(ptr noundef %0, i32 noundef %1, ptr noundef %2, ptr noundef %3) #2 {
  %5 = alloca ptr, align 8
  %6 = alloca i32, align 4
  %7 = alloca ptr, align 8
  %8 = alloca ptr, align 8
  %9 = alloca float, align 4
  %10 = alloca float, align 4
  %11 = alloca i32, align 4
  %12 = alloca i32, align 4
  store ptr %0, ptr %5, align 8, !tbaa !30
  store i32 %1, ptr %6, align 4, !tbaa !4
  store ptr %2, ptr %7, align 8, !tbaa !26
  store ptr %3, ptr %8, align 8, !tbaa !28
  call void @llvm.lifetime.start.p0(i64 4, ptr %9) #14
  call void @llvm.lifetime.start.p0(i64 4, ptr %10) #14
  call void @llvm.lifetime.start.p0(i64 4, ptr %11) #14
  call void @llvm.lifetime.start.p0(i64 4, ptr %12) #14
  store float 0.000000e+00, ptr %10, align 4, !tbaa !11
  store i32 0, ptr %11, align 4, !tbaa !4
  br label %13

13:                                               ; preds = %49, %4
  %14 = load i32, ptr %11, align 4, !tbaa !4
  %15 = load i32, ptr %6, align 4, !tbaa !4
  %16 = icmp slt i32 %14, %15
  br i1 %16, label %17, label %52

17:                                               ; preds = %13
  %18 = load ptr, ptr %7, align 8, !tbaa !26
  %19 = load i32, ptr %11, align 4, !tbaa !4
  %20 = sext i32 %19 to i64
  %21 = getelementptr inbounds i32, ptr %18, i64 %20
  %22 = load i32, ptr %21, align 4, !tbaa !4
  store i32 %22, ptr %12, align 4, !tbaa !4
  %23 = load ptr, ptr %8, align 8, !tbaa !28
  %24 = load i32, ptr %12, align 4, !tbaa !4
  %25 = sext i32 %24 to i64
  %26 = getelementptr inbounds [3 x float], ptr %23, i64 %25
  %27 = getelementptr inbounds [3 x float], ptr %26, i64 0, i64 0
  %28 = load float, ptr %27, align 4, !tbaa !11
  %29 = call noundef float @_ZN3gmx6squareIfEET_S1_(float noundef %28)
  %30 = load ptr, ptr %8, align 8, !tbaa !28
  %31 = load i32, ptr %12, align 4, !tbaa !4
  %32 = sext i32 %31 to i64
  %33 = getelementptr inbounds [3 x float], ptr %30, i64 %32
  %34 = getelementptr inbounds [3 x float], ptr %33, i64 0, i64 1
  %35 = load float, ptr %34, align 4, !tbaa !11
  %36 = call noundef float @_ZN3gmx6squareIfEET_S1_(float noundef %35)
  %37 = fadd float %29, %36
  store float %37, ptr %9, align 4, !tbaa !11
  %38 = load ptr, ptr %5, align 8, !tbaa !30
  %39 = icmp ne ptr %38, null
  br i1 %39, label %40, label %45

40:                                               ; preds = %17
  %41 = load ptr, ptr %5, align 8, !tbaa !30
  %42 = load float, ptr %9, align 4, !tbaa !11
  %43 = fpext float %42 to double
  %44 = call i32 (ptr, ptr, ...) @fprintf(ptr noundef %41, ptr noundef @.str, double noundef %43) #14
  br label %45

45:                                               ; preds = %40, %17
  %46 = load float, ptr %9, align 4, !tbaa !11
  %47 = load float, ptr %10, align 4, !tbaa !11
  %48 = fadd float %47, %46
  store float %48, ptr %10, align 4, !tbaa !11
  br label %49

49:                                               ; preds = %45
  %50 = load i32, ptr %11, align 4, !tbaa !4
  %51 = add nsw i32 %50, 1
  store i32 %51, ptr %11, align 4, !tbaa !4
  br label %13, !llvm.loop !32

52:                                               ; preds = %13
  %53 = load ptr, ptr %5, align 8, !tbaa !30
  %54 = icmp ne ptr %53, null
  br i1 %54, label %55, label %58

55:                                               ; preds = %52
  %56 = load ptr, ptr %5, align 8, !tbaa !30
  %57 = call i32 (ptr, ptr, ...) @fprintf(ptr noundef %56, ptr noundef @.str.1) #14
  br label %58

58:                                               ; preds = %55, %52
  %59 = load float, ptr %10, align 4, !tbaa !11
  %60 = load i32, ptr %6, align 4, !tbaa !4
  %61 = sitofp i32 %60 to float
  %62 = fdiv float %59, %61
  %63 = call noundef float @_ZSt4sqrtf(float noundef %62)
  call void @llvm.lifetime.end.p0(i64 4, ptr %12) #14
  call void @llvm.lifetime.end.p0(i64 4, ptr %11) #14
  call void @llvm.lifetime.end.p0(i64 4, ptr %10) #14
  call void @llvm.lifetime.end.p0(i64 4, ptr %9) #14
  ret float %63
}