; Function Attrs: mustprogress nofree nounwind uwtable
define noundef float @_Z6radiusP8_IO_FILEiPKiPA3_f(ptr noundef %0, i32 noundef %1, ptr noundef readonly captures(none) %2, ptr noundef readonly captures(none) %3) local_unnamed_addr #5 {
  %5 = icmp sgt i32 %1, 0
  %.not20 = icmp eq ptr %0, null
  br i1 %5, label %.lr.ph, label %._crit_edge

.lr.ph:                                           ; preds = %4
  %wide.trip.count29 = zext nneg i32 %1 to i64
  br i1 %.not20, label %.lr.ph.split.us, label %.lr.ph.split

.lr.ph.split.us:                                  ; preds = %.lr.ph, %.lr.ph.split.us
  %indvars.iv26 = phi i64 [ %indvars.iv.next27, %.lr.ph.split.us ], [ 0, %.lr.ph ]
  %.022.us = phi float [ %16, %.lr.ph.split.us ], [ 0.000000e+00, %.lr.ph ]
  %6 = getelementptr inbounds nuw i32, ptr %2, i64 %indvars.iv26
  %7 = load i32, ptr %6, align 4, !tbaa !20
  %8 = sext i32 %7 to i64
  %9 = getelementptr inbounds [3 x float], ptr %3, i64 %8
  %10 = load float, ptr %9, align 4, !tbaa !21
  %11 = fmul float %10, %10
  %12 = getelementptr inbounds nuw i8, ptr %9, i64 4
  %13 = load float, ptr %12, align 4, !tbaa !21
  %14 = fmul float %13, %13
  %15 = fadd float %11, %14
  %16 = fadd float %.022.us, %15
  %indvars.iv.next27 = add nuw nsw i64 %indvars.iv26, 1
  %exitcond30.not = icmp eq i64 %indvars.iv.next27, %wide.trip.count29
  br i1 %exitcond30.not, label %._crit_edge.thread, label %.lr.ph.split.us, !llvm.loop !22

.lr.ph.split:                                     ; preds = %.lr.ph, %.lr.ph.split
  %indvars.iv = phi i64 [ %indvars.iv.next, %.lr.ph.split ], [ 0, %.lr.ph ]
  %.022 = phi float [ %29, %.lr.ph.split ], [ 0.000000e+00, %.lr.ph ]
  %17 = getelementptr inbounds nuw i32, ptr %2, i64 %indvars.iv
  %18 = load i32, ptr %17, align 4, !tbaa !20
  %19 = sext i32 %18 to i64
  %20 = getelementptr inbounds [3 x float], ptr %3, i64 %19
  %21 = load float, ptr %20, align 4, !tbaa !21
  %22 = fmul float %21, %21
  %23 = getelementptr inbounds nuw i8, ptr %20, i64 4
  %24 = load float, ptr %23, align 4, !tbaa !21
  %25 = fmul float %24, %24
  %26 = fadd float %22, %25
  %27 = fpext float %26 to double
  %28 = tail call i32 (ptr, ptr, ...) @fprintf(ptr noundef nonnull %0, ptr noundef nonnull @.str, double noundef %27) #21
  %29 = fadd float %.022, %26
  %indvars.iv.next = add nuw nsw i64 %indvars.iv, 1
  %exitcond.not = icmp eq i64 %indvars.iv.next, %wide.trip.count29
  br i1 %exitcond.not, label %._crit_edge.thread34, label %.lr.ph.split, !llvm.loop !22

._crit_edge:                                      ; preds = %4
  br i1 %.not20, label %._crit_edge.thread, label %._crit_edge.thread34

._crit_edge.thread34:                             ; preds = %.lr.ph.split, %._crit_edge
  %.0.lcssa37 = phi float [ 0.000000e+00, %._crit_edge ], [ %29, %.lr.ph.split ]
  %fputc = tail call i32 @fputc(i32 10, ptr nonnull %0)
  br label %._crit_edge.thread

._crit_edge.thread:                               ; preds = %.lr.ph.split.us, %._crit_edge.thread34, %._crit_edge
  %.0.lcssa33 = phi float [ %.0.lcssa37, %._crit_edge.thread34 ], [ 0.000000e+00, %._crit_edge ], [ %16, %.lr.ph.split.us ]
  %30 = sitofp i32 %1 to float
  %31 = fdiv float %.0.lcssa33, %30
  %32 = tail call noundef float @sqrtf(float noundef %31) #21, !tbaa !20
  ret float %32
}